Certificate:
    Data:
        Version: 1 (0x0)
        Serial Number: 1 (0x1)
        Signature Algorithm: ecdsa-with-SHA256
        Issuer: C=US, CN=ca
        Validity
            Not Before: Mar  4 20:09:59 2026 GMT
            Not After : Mar  4 20:09:59 2027 GMT
        Subject: C=US, CN=172.20.10.9
        Subject Public Key Info:
            Public Key Algorithm: id-ecPublicKey
                Public-Key: (256 bit)
                pub:
                    04:bf:47:29:6b:de:41:57:76:69:5e:6f:46:c1:3c:
                    20:68:6d:d0:7a:f3:d0:c9:80:68:3e:39:4b:d3:aa:
                    fd:09:5c:70:b8:36:1e:45:e6:29:e0:3d:d6:81:3d:
                    3a:e1:fb:2c:d0:5b:b5:f4:77:8e:da:a5:71:24:da:
                    9d:b1:e7:54:3d
                ASN1 OID: prime256v1
                NIST CURVE: P-256
    Signature Algorithm: ecdsa-with-SHA256
    Signature Value:
        30:44:02:20:39:15:46:0a:cd:98:c6:e9:08:b0:2f:31:d3:9b:
        7d:97:e1:79:55:ac:ca:22:85:1c:1c:1f:96:54:4f:eb:dd:e1:
        02:20:07:c9:1b:7f:4e:b6:df:d9:15:2e:64:e8:3c:25:44:bf:
        12:f9:c8:8b:6f:a0:dd:bc:7c:51:4b:51:78:93:2b:5d
-----BEGIN CERTIFICATE-----
MIIBIzCBywIBATAKBggqhkjOPQQDAjAaMQswCQYDVQQGEwJVUzELMAkGA1UEAwwC
Y2EwHhcNMjYwMzA0MjAwOTU5WhcNMjcwMzA0MjAwOTU5WjAjMQswCQYDVQQGEwJV
UzEUMBIGA1UEAwwLMTcyLjIwLjEwLjkwWTATBgcqhkjOPQIBBggqhkjOPQMBBwNC
AAS/Rylr3kFXdmleb0bBPCBobdB689DJgGg+OUvTqv0JXHC4Nh5F5ingPdaBPTrh
+yzQW7X0d47apXEk2p2x51Q9MAoGCCqGSM49BAMCA0cAMEQCIDkVRgrNmMbpCLAv
MdObfZfheVWsyiKFHBwfllRP693hAiAHyRt/Trbf2RUuZOg8JUS/EvnIi2+g3bx8
UUtReJMrXQ==
-----END CERTIFICATE-----
