Certificate:
    Data:
        Version: 1 (0x0)
        Serial Number: 2 (0x2)
        Signature Algorithm: ecdsa-with-SHA256
        Issuer: C=US, CN=ca
        Validity
            Not Before: Mar  4 20:09:59 2026 GMT
            Not After : Mar  4 20:09:59 2027 GMT
        Subject: C=US, CN=172.20.10.12
        Subject Public Key Info:
            Public Key Algorithm: id-ecPublicKey
                Public-Key: (256 bit)
                pub:
                    04:63:6a:06:78:59:97:39:00:77:77:fa:f0:f7:be:
                    81:07:27:87:4f:16:7f:3f:54:4a:67:32:57:8e:8d:
                    9a:37:55:92:05:f2:c3:5e:f9:6d:26:90:51:da:63:
                    03:4c:de:1d:77:90:c5:a6:dd:34:d6:de:a2:49:0f:
                    b6:f2:46:85:29
                ASN1 OID: prime256v1
                NIST CURVE: P-256
    Signature Algorithm: ecdsa-with-SHA256
    Signature Value:
        30:45:02:21:00:b0:d4:db:d8:18:5c:6b:c6:fa:38:f4:d2:22:
        0a:7e:27:68:1d:7e:e3:58:fa:8d:d8:76:87:91:f2:d4:e2:3c:
        c7:02:20:52:59:98:67:e5:93:32:4f:56:3a:05:25:c6:a4:f5:
        c2:bd:f5:e7:2f:b9:7e:ea:2c:6b:ad:14:59:e9:db:81:ae
-----BEGIN CERTIFICATE-----
MIIBJTCBzAIBAjAKBggqhkjOPQQDAjAaMQswCQYDVQQGEwJVUzELMAkGA1UEAwwC
Y2EwHhcNMjYwMzA0MjAwOTU5WhcNMjcwMzA0MjAwOTU5WjAkMQswCQYDVQQGEwJV
UzEVMBMGA1UEAwwMMTcyLjIwLjEwLjEyMFkwEwYHKoZIzj0CAQYIKoZIzj0DAQcD
QgAEY2oGeFmXOQB3d/rw976BByeHTxZ/P1RKZzJXjo2aN1WSBfLDXvltJpBR2mMD
TN4dd5DFpt001t6iSQ+28kaFKTAKBggqhkjOPQQDAgNIADBFAiEAsNTb2Bhca8b6
OPTSIgp+J2gdfuNY+o3YdoeR8tTiPMcCIFJZmGflkzJPVjoFJcak9cK99ecvuX7q
LGutFFnp24Gu
-----END CERTIFICATE-----
