Certificate:
    Data:
        Version: 1 (0x0)
        Serial Number: 3 (0x3)
        Signature Algorithm: ecdsa-with-SHA256
        Issuer: C=US, CN=ca
        Validity
            Not Before: Mar  4 20:09:59 2026 GMT
            Not After : Mar  4 20:09:59 2027 GMT
        Subject: C=US, CN=admin
        Subject Public Key Info:
            Public Key Algorithm: id-ecPublicKey
                Public-Key: (256 bit)
                pub:
                    04:b9:bd:47:7e:56:fc:9c:66:5a:b7:96:39:04:15:
                    47:c3:2d:97:7e:75:a2:9c:0d:0d:d4:8a:d1:2e:33:
                    e3:39:61:ec:3f:18:ec:74:c4:d2:16:9a:04:25:6e:
                    ab:c6:a2:96:2e:d0:df:c1:8b:46:2c:e0:86:4f:3f:
                    60:ba:50:4b:93
                ASN1 OID: prime256v1
                NIST CURVE: P-256
    Signature Algorithm: ecdsa-with-SHA256
    Signature Value:
        30:45:02:20:21:c4:3f:a5:cf:d7:69:d6:73:85:54:87:83:67:
        97:4b:5f:6a:87:23:04:14:c9:a0:28:c2:d4:37:48:0c:e0:b3:
        02:21:00:f6:cf:f5:b1:34:27:5c:2e:66:de:f4:28:ac:fb:23:
        1a:9c:ef:90:72:07:b6:22:c0:63:68:d5:df:42:7c:3e:15
-----BEGIN CERTIFICATE-----
MIIBHjCBxQIBAzAKBggqhkjOPQQDAjAaMQswCQYDVQQGEwJVUzELMAkGA1UEAwwC
Y2EwHhcNMjYwMzA0MjAwOTU5WhcNMjcwMzA0MjAwOTU5WjAdMQswCQYDVQQGEwJV
UzEOMAwGA1UEAwwFYWRtaW4wWTATBgcqhkjOPQIBBggqhkjOPQMBBwNCAAS5vUd+
VvycZlq3ljkEFUfDLZd+daKcDQ3UitEuM+M5Yew/GOx0xNIWmgQlbqvGopYu0N/B
i0Ys4IZPP2C6UEuTMAoGCCqGSM49BAMCA0gAMEUCICHEP6XP12nWc4VUh4Nnl0tf
aocjBBTJoCjC1DdIDOCzAiEA9s/1sTQnXC5m3vQorPsjGpzvkHIHtiLAY2jV30J8
PhU=
-----END CERTIFICATE-----
